; Function Attrs: mustprogress uwtable
define noundef zeroext i1 @_ZN6google8protobuf2io16FileOutputStream23CopyingFileOutputStream5WriteEPKvi(ptr nocapture noundef nonnull align 8 dereferenceable(24) %this, ptr nocapture noundef readonly %buffer, i32 noundef %size) unnamed_addr #3 align 2 personality ptr @__gxx_personality_v0 {
entry:
  %ref.tmp3 = alloca %"class.absl::lts_20230802::log_internal::LogMessageFatal", align 8
  %is_closed_ = getelementptr inbounds i8, ptr %this, i64 13
  %0 = load i8, ptr %is_closed_, align 1
  %1 = and i8 %0, 1
  %tobool.not.not = icmp eq i8 %1, 0
  br i1 %tobool.not.not, label %while.cond.preheader, label %cond.false

while.cond.preheader:                             ; preds = %entry
  %cmp14 = icmp slt i32 %size, 1
  br i1 %cmp14, label %return, label %do.body.preheader.lr.ph

do.body.preheader.lr.ph:                          ; preds = %while.cond.preheader
  %file_ = getelementptr inbounds i8, ptr %this, i64 8
  br label %do.body.preheader

cond.false:                                       ; preds = %entry
  call void @_ZN4absl12lts_2023080212log_internal15LogMessageFatalC1EPKciSt17basic_string_viewIcSt11char_traitsIcEE(ptr noundef nonnull align 8 dereferenceable(16) %ref.tmp3, ptr noundef nonnull @.str, i32 noundef 193, i64 11, ptr nonnull @.str.2) #17
  call void @_ZN4absl12lts_2023080212log_internal15LogMessageFatalD1Ev(ptr noundef nonnull align 8 dereferenceable(16) %ref.tmp3) #18
  unreachable

do.body.preheader:                                ; preds = %do.end, %do.body.preheader.lr.ph
  %total_written.015 = phi i32 [ 0, %do.body.preheader.lr.ph ], [ %add, %do.end ]
  %idx.ext = zext nneg i32 %total_written.015 to i64
  %add.ptr = getelementptr inbounds i8, ptr %buffer, i64 %idx.ext
  %sub = sub nsw i32 %size, %total_written.015
  %conv = sext i32 %sub to i64
  br label %do.body

do.body:                                          ; preds = %do.body.preheader, %land.rhs
  %2 = load i32, ptr %file_, align 8
  %call8 = tail call i64 @write(i32 noundef %2, ptr noundef %add.ptr, i64 noundef %conv)
  %conv9 = trunc i64 %call8 to i32
  %cmp10 = icmp slt i32 %conv9, 0
  br i1 %cmp10, label %land.rhs, label %do.end

land.rhs:                                         ; preds = %do.body
  %call11 = tail call ptr @__errno_location() #19
  %3 = load i32, ptr %call11, align 4
  %cmp12 = icmp eq i32 %3, 4
  br i1 %cmp12, label %do.body, label %if.then15, !llvm.loop !7

do.end:                                           ; preds = %do.body
  %cmp13.not = icmp ne i32 %conv9, 0
  %add = add nuw nsw i32 %total_written.015, %conv9
  %cmp.not = icmp slt i32 %add, %size
  %or.cond = select i1 %cmp13.not, i1 %cmp.not, i1 false
  br i1 %or.cond, label %do.body.preheader, label %return, !llvm.loop !8

if.then15:                                        ; preds = %land.rhs
  %errno_ = getelementptr inbounds i8, ptr %this, i64 16
  store i32 %3, ptr %errno_, align 8
  br label %return

return:                                           ; preds = %do.end, %while.cond.preheader, %if.then15
  %cmp11 = phi i1 [ false, %if.then15 ], [ true, %while.cond.preheader ], [ %cmp13.not, %do.end ]
  ret i1 %cmp11
}